; ModuleID = '31/1378.c'
source_filename = "31/1378.c"
target datalayout = "e-m:e-p270:32:32-p271:32:32-p272:64:64-i64:64-f80:128-n8:16:32:64-S128"
target triple = "x86_64-pc-linux-gnu"

%struct.Student = type { [41 x i8], [41 x i8], [5 x i8], i32, [10 x i8], [41 x i8], %struct.Student*, %struct.Student* }

@size = dso_local global i32 160, align 4
@.str = private unnamed_addr constant [3 x i8] c"%s\00", align 1
@.str.1 = private unnamed_addr constant [4 x i8] c"end\00", align 1
@.str.2 = private unnamed_addr constant [15 x i8] c"%s %s %d %s %s\00", align 1
@gan = common dso_local global %struct.Student zeroinitializer, align 8
@.str.3 = private unnamed_addr constant [19 x i8] c"%s %s %s %d %s %s\0A\00", align 1

; Function Attrs: noinline nounwind uwtable
define dso_local void @push() #0 {
  %1 = alloca [41 x i8], align 16
  %2 = alloca %struct.Student*, align 8
  %3 = getelementptr inbounds [41 x i8], [41 x i8]* %1, i64 0, i64 0
  %4 = call i32 (i8*, ...) @__isoc99_scanf(i8* getelementptr inbounds ([3 x i8], [3 x i8]* @.str, i64 0, i64 0), i8* %3)
  br label %5

5:                                                ; preds = %9, %0
  %6 = getelementptr inbounds [41 x i8], [41 x i8]* %1, i64 0, i64 0
  %7 = call i32 @strcmp(i8* %6, i8* getelementptr inbounds ([4 x i8], [4 x i8]* @.str.1, i64 0, i64 0)) #4
  %8 = icmp ne i32 %7, 0
  br i1 %8, label %9, label %45

9:                                                ; preds = %5
  %10 = load i32, i32* @size, align 4
  %11 = sext i32 %10 to i64
  %12 = call noalias i8* @malloc(i64 %11) #5
  %13 = bitcast i8* %12 to %struct.Student*
  store %struct.Student* %13, %struct.Student** %2, align 8
  %14 = load %struct.Student*, %struct.Student** %2, align 8
  %15 = getelementptr inbounds %struct.Student, %struct.Student* %14, i32 0, i32 0
  %16 = getelementptr inbounds [41 x i8], [41 x i8]* %15, i64 0, i64 0
  %17 = getelementptr inbounds [41 x i8], [41 x i8]* %1, i64 0, i64 0
  %18 = call i8* @strcpy(i8* %16, i8* %17) #5
  %19 = load %struct.Student*, %struct.Student** %2, align 8
  %20 = getelementptr inbounds %struct.Student, %struct.Student* %19, i32 0, i32 1
  %21 = getelementptr inbounds [41 x i8], [41 x i8]* %20, i64 0, i64 0
  %22 = load %struct.Student*, %struct.Student** %2, align 8
  %23 = getelementptr inbounds %struct.Student, %struct.Student* %22, i32 0, i32 2
  %24 = getelementptr inbounds [5 x i8], [5 x i8]* %23, i64 0, i64 0
  %25 = load %struct.Student*, %struct.Student** %2, align 8
  %26 = getelementptr inbounds %struct.Student, %struct.Student* %25, i32 0, i32 3
  %27 = load %struct.Student*, %struct.Student** %2, align 8
  %28 = getelementptr inbounds %struct.Student, %struct.Student* %27, i32 0, i32 4
  %29 = getelementptr inbounds [10 x i8], [10 x i8]* %28, i64 0, i64 0
  %30 = load %struct.Student*, %struct.Student** %2, align 8
  %31 = getelementptr inbounds %struct.Student, %struct.Student* %30, i32 0, i32 5
  %32 = getelementptr inbounds [41 x i8], [41 x i8]* %31, i64 0, i64 0
  %33 = call i32 (i8*, ...) @__isoc99_scanf(i8* getelementptr inbounds ([15 x i8], [15 x i8]* @.str.2, i64 0, i64 0), i8* %21, i8* %24, i32* %26, i8* %29, i8* %32)
  %34 = load %struct.Student*, %struct.Student** %2, align 8
  %35 = load %struct.Student*, %struct.Student** getelementptr inbounds (%struct.Student, %struct.Student* @gan, i32 0, i32 7), align 8
  %36 = getelementptr inbounds %struct.Student, %struct.Student* %35, i32 0, i32 6
  store %struct.Student* %34, %struct.Student** %36, align 8
  %37 = load %struct.Student*, %struct.Student** getelementptr inbounds (%struct.Student, %struct.Student* @gan, i32 0, i32 7), align 8
  %38 = load %struct.Student*, %struct.Student** %2, align 8
  %39 = getelementptr inbounds %struct.Student, %struct.Student* %38, i32 0, i32 7
  store %struct.Student* %37, %struct.Student** %39, align 8
  %40 = load %struct.Student*, %struct.Student** %2, align 8
  store %struct.Student* %40, %struct.Student** getelementptr inbounds (%struct.Student, %struct.Student* @gan, i32 0, i32 7), align 8
  %41 = load %struct.Student*, %struct.Student** %2, align 8
  %42 = getelementptr inbounds %struct.Student, %struct.Student* %41, i32 0, i32 6
  store %struct.Student* @gan, %struct.Student** %42, align 8
  %43 = getelementptr inbounds [41 x i8], [41 x i8]* %1, i64 0, i64 0
  %44 = call i32 (i8*, ...) @__isoc99_scanf(i8* getelementptr inbounds ([3 x i8], [3 x i8]* @.str, i64 0, i64 0), i8* %43)
  br label %5

45:                                               ; preds = %5
  ret void
}

declare dso_local i32 @__isoc99_scanf(i8*, ...) #1

; Function Attrs: nounwind readonly
declare dso_local i32 @strcmp(i8*, i8*) #2

; Function Attrs: nounwind
declare dso_local noalias i8* @malloc(i64) #3

; Function Attrs: nounwind
declare dso_local i8* @strcpy(i8*, i8*) #3

; Function Attrs: noinline nounwind uwtable
define dso_local void @display(%struct.Student* byval(%struct.Student) align 8 %0) #0 {
  %2 = getelementptr inbounds %struct.Student, %struct.Student* %0, i32 0, i32 0
  %3 = getelementptr inbounds [41 x i8], [41 x i8]* %2, i64 0, i64 0
  %4 = getelementptr inbounds %struct.Student, %struct.Student* %0, i32 0, i32 1
  %5 = getelementptr inbounds [41 x i8], [41 x i8]* %4, i64 0, i64 0
  %6 = getelementptr inbounds %struct.Student, %struct.Student* %0, i32 0, i32 2
  %7 = getelementptr inbounds [5 x i8], [5 x i8]* %6, i64 0, i64 0
  %8 = getelementptr inbounds %struct.Student, %struct.Student* %0, i32 0, i32 3
  %9 = load i32, i32* %8, align 8
  %10 = getelementptr inbounds %struct.Student, %struct.Student* %0, i32 0, i32 4
  %11 = getelementptr inbounds [10 x i8], [10 x i8]* %10, i64 0, i64 0
  %12 = getelementptr inbounds %struct.Student, %struct.Student* %0, i32 0, i32 5
  %13 = getelementptr inbounds [41 x i8], [41 x i8]* %12, i64 0, i64 0
  %14 = call i32 (i8*, ...) @printf(i8* getelementptr inbounds ([19 x i8], [19 x i8]* @.str.3, i64 0, i64 0), i8* %3, i8* %5, i8* %7, i32 %9, i8* %11, i8* %13)
  ret void
}

declare dso_local i32 @printf(i8*, ...) #1

; Function Attrs: noinline nounwind uwtable
define dso_local i32 @main() #0 {
  %1 = alloca i32, align 4
  %2 = alloca %struct.Student*, align 8
  store i32 0, i32* %1, align 4
  store %struct.Student* @gan, %struct.Student** getelementptr inbounds (%struct.Student, %struct.Student* @gan, i32 0, i32 6), align 8
  store %struct.Student* @gan, %struct.Student** getelementptr inbounds (%struct.Student, %struct.Student* @gan, i32 0, i32 7), align 8
  call void @push()
  %3 = load %struct.Student*, %struct.Student** getelementptr inbounds (%struct.Student, %struct.Student* @gan, i32 0, i32 7), align 8
  store %struct.Student* %3, %struct.Student** %2, align 8
  br label %4

4:                                                ; preds = %7, %0
  %5 = load %struct.Student*, %struct.Student** %2, align 8
  %6 = icmp ne %struct.Student* %5, @gan
  br i1 %6, label %7, label %12

7:                                                ; preds = %4
  %8 = load %struct.Student*, %struct.Student** %2, align 8
  call void @display(%struct.Student* byval(%struct.Student) align 8 %8)
  %9 = load %struct.Student*, %struct.Student** %2, align 8
  %10 = getelementptr inbounds %struct.Student, %struct.Student* %9, i32 0, i32 7
  %11 = load %struct.Student*, %struct.Student** %10, align 8
  store %struct.Student* %11, %struct.Student** %2, align 8
  br label %4

12:                                               ; preds = %4
  ret i32 0
}


!llvm.module.flags = !{!0}
!llvm.ident = !{!1}

!0 = !{i32 1, !"wchar_size", i32 4}
!1 = !{!"clang version 10.0.0-4ubuntu1 "}
